target datalayout = "e-m:e-p270:32:32-p271:32:32-p272:64:64-i64:64-i128:128-f80:128-n8:16:32:64-S128"
target triple = "x86_64-pc-linux-gnu"

%struct.CPpmd7 = type { ptr, ptr, ptr, i32, i32, i32, i32, i32, i32, i32, i32, i32, ptr, ptr, ptr, ptr, ptr, i32, [38 x i8], [128 x i8], [38 x i32], [256 x i8], [256 x i8], [256 x i8], %struct.CPpmd_See, [25 x [16 x %struct.CPpmd_See]], [128 x [64 x i16]] }
%struct.CPpmd_See = type { i16, i8, i8 }
%struct.CPpmd7_Context_ = type { i16, i16, i32, i32 }
%struct.CPpmd_State = type { i8, i8, i16, i16 }

@kInitBinEsc = internal constant [8 x i16] [i16 15581, i16 7999, i16 22975, i16 18675, i16 25761, i16 23228, i16 26162, i16 24657], align 16

; Function Attrs: nounwind uwtable
define internal void @SetSuccessor(ptr noundef %0, i32 noundef %1) #0 {
  %3 = alloca ptr, align 8
  %4 = alloca i32, align 4
  store ptr %0, ptr %3, align 8, !tbaa !3
  store i32 %1, ptr %4, align 4, !tbaa !14
  %5 = load i32, ptr %4, align 4, !tbaa !14
  %6 = and i32 %5, 65535
  %7 = trunc i32 %6 to i16
  %8 = load ptr, ptr %3, align 8, !tbaa !3
  %9 = getelementptr inbounds nuw %struct.CPpmd_State, ptr %8, i32 0, i32 2
  store i16 %7, ptr %9, align 2, !tbaa !55
  %10 = load i32, ptr %4, align 4, !tbaa !14
  %11 = lshr i32 %10, 16
  %12 = and i32 %11, 65535
  %13 = trunc i32 %12 to i16
  %14 = load ptr, ptr %3, align 8, !tbaa !3
  %15 = getelementptr inbounds nuw %struct.CPpmd_State, ptr %14, i32 0, i32 3
  store i16 %13, ptr %15, align 2, !tbaa !56
  ret void
}

; Function Attrs: nounwind uwtable
define internal void @RestartModel(ptr noundef %0) #0 {
  %2 = alloca ptr, align 8
  %3 = alloca i32, align 4
  %4 = alloca i32, align 4
  %5 = alloca i32, align 4
  %6 = alloca ptr, align 8
  %7 = alloca ptr, align 8
  %8 = alloca i16, align 2
  %9 = alloca ptr, align 8
  store ptr %0, ptr %2, align 8, !tbaa !3
  call void @llvm.lifetime.start.p0(i64 4, ptr %3) #4
  call void @llvm.lifetime.start.p0(i64 4, ptr %4) #4
  call void @llvm.lifetime.start.p0(i64 4, ptr %5) #4
  %10 = load ptr, ptr %2, align 8, !tbaa !3
  %11 = getelementptr inbounds nuw %struct.CPpmd7, ptr %10, i32 0, i32 20
  %12 = getelementptr inbounds [38 x i32], ptr %11, i64 0, i64 0
  call void @llvm.memset.p0.i64(ptr align 4 %12, i8 0, i64 152, i1 false)
  %13 = load ptr, ptr %2, align 8, !tbaa !3
  %14 = getelementptr inbounds nuw %struct.CPpmd7, ptr %13, i32 0, i32 12
  %15 = load ptr, ptr %14, align 8, !tbaa !7
  %16 = load ptr, ptr %2, align 8, !tbaa !3
  %17 = getelementptr inbounds nuw %struct.CPpmd7, ptr %16, i32 0, i32 17
  %18 = load i32, ptr %17, align 8, !tbaa !19
  %19 = zext i32 %18 to i64
  %20 = getelementptr inbounds nuw i8, ptr %15, i64 %19
  %21 = load ptr, ptr %2, align 8, !tbaa !3
  %22 = getelementptr inbounds nuw %struct.CPpmd7, ptr %21, i32 0, i32 15
  store ptr %20, ptr %22, align 8, !tbaa !25
  %23 = load ptr, ptr %2, align 8, !tbaa !3
  %24 = getelementptr inbounds nuw %struct.CPpmd7, ptr %23, i32 0, i32 15
  %25 = load ptr, ptr %24, align 8, !tbaa !25
  %26 = load ptr, ptr %2, align 8, !tbaa !3
  %27 = getelementptr inbounds nuw %struct.CPpmd7, ptr %26, i32 0, i32 10
  %28 = load i32, ptr %27, align 4, !tbaa !18
  %29 = zext i32 %28 to i64
  %30 = getelementptr inbounds nuw i8, ptr %25, i64 %29
  %31 = load ptr, ptr %2, align 8, !tbaa !3
  %32 = getelementptr inbounds nuw %struct.CPpmd7, ptr %31, i32 0, i32 14
  store ptr %30, ptr %32, align 8, !tbaa !26
  %33 = load ptr, ptr %2, align 8, !tbaa !3
  %34 = getelementptr inbounds nuw %struct.CPpmd7, ptr %33, i32 0, i32 14
  %35 = load ptr, ptr %34, align 8, !tbaa !26
  %36 = load ptr, ptr %2, align 8, !tbaa !3
  %37 = getelementptr inbounds nuw %struct.CPpmd7, ptr %36, i32 0, i32 10
  %38 = load i32, ptr %37, align 4, !tbaa !18
  %39 = udiv i32 %38, 8
  %40 = udiv i32 %39, 12
  %41 = mul i32 %40, 7
  %42 = mul i32 %41, 12
  %43 = zext i32 %42 to i64
  %44 = sub i64 0, %43
  %45 = getelementptr inbounds i8, ptr %35, i64 %44
  %46 = load ptr, ptr %2, align 8, !tbaa !3
  %47 = getelementptr inbounds nuw %struct.CPpmd7, ptr %46, i32 0, i32 16
  store ptr %45, ptr %47, align 8, !tbaa !27
  %48 = load ptr, ptr %2, align 8, !tbaa !3
  %49 = getelementptr inbounds nuw %struct.CPpmd7, ptr %48, i32 0, i32 13
  store ptr %45, ptr %49, align 8, !tbaa !28
  %50 = load ptr, ptr %2, align 8, !tbaa !3
  %51 = getelementptr inbounds nuw %struct.CPpmd7, ptr %50, i32 0, i32 11
  store i32 0, ptr %51, align 8, !tbaa !29
  %52 = load ptr, ptr %2, align 8, !tbaa !3
  %53 = getelementptr inbounds nuw %struct.CPpmd7, ptr %52, i32 0, i32 6
  %54 = load i32, ptr %53, align 4, !tbaa !21
  %55 = load ptr, ptr %2, align 8, !tbaa !3
  %56 = getelementptr inbounds nuw %struct.CPpmd7, ptr %55, i32 0, i32 3
  store i32 %54, ptr %56, align 8, !tbaa !30
  %57 = load ptr, ptr %2, align 8, !tbaa !3
  %58 = getelementptr inbounds nuw %struct.CPpmd7, ptr %57, i32 0, i32 6
  %59 = load i32, ptr %58, align 4, !tbaa !21
  %60 = icmp ult i32 %59, 12
  br i1 %60, label %61, label %65

61:                                               ; preds = %1
  %62 = load ptr, ptr %2, align 8, !tbaa !3
  %63 = getelementptr inbounds nuw %struct.CPpmd7, ptr %62, i32 0, i32 6
  %64 = load i32, ptr %63, align 4, !tbaa !21
  br label %66

65:                                               ; preds = %1
  br label %66

66:                                               ; preds = %65, %61
  %67 = phi i32 [ %64, %61 ], [ 12, %65 ]
  %68 = sub nsw i32 0, %67
  %69 = sub nsw i32 %68, 1
  %70 = load ptr, ptr %2, align 8, !tbaa !3
  %71 = getelementptr inbounds nuw %struct.CPpmd7, ptr %70, i32 0, i32 9
  store i32 %69, ptr %71, align 8, !tbaa !31
  %72 = load ptr, ptr %2, align 8, !tbaa !3
  %73 = getelementptr inbounds nuw %struct.CPpmd7, ptr %72, i32 0, i32 8
  store i32 %69, ptr %73, align 4, !tbaa !32
  %74 = load ptr, ptr %2, align 8, !tbaa !3
  %75 = getelementptr inbounds nuw %struct.CPpmd7, ptr %74, i32 0, i32 5
  store i32 0, ptr %75, align 8, !tbaa !33
  %76 = load ptr, ptr %2, align 8, !tbaa !3
  %77 = getelementptr inbounds nuw %struct.CPpmd7, ptr %76, i32 0, i32 14
  %78 = load ptr, ptr %77, align 8, !tbaa !26
  %79 = getelementptr inbounds i8, ptr %78, i64 -12
  store ptr %79, ptr %77, align 8, !tbaa !26
  %80 = load ptr, ptr %2, align 8, !tbaa !3
  %81 = getelementptr inbounds nuw %struct.CPpmd7, ptr %80, i32 0, i32 1
  store ptr %79, ptr %81, align 8, !tbaa !34
  %82 = load ptr, ptr %2, align 8, !tbaa !3
  %83 = getelementptr inbounds nuw %struct.CPpmd7, ptr %82, i32 0, i32 0
  store ptr %79, ptr %83, align 8, !tbaa !35
  %84 = load ptr, ptr %2, align 8, !tbaa !3
  %85 = getelementptr inbounds nuw %struct.CPpmd7, ptr %84, i32 0, i32 0
  %86 = load ptr, ptr %85, align 8, !tbaa !35
  %87 = getelementptr inbounds nuw %struct.CPpmd7_Context_, ptr %86, i32 0, i32 3
  store i32 0, ptr %87, align 4, !tbaa !36
  %88 = load ptr, ptr %2, align 8, !tbaa !3
  %89 = getelementptr inbounds nuw %struct.CPpmd7, ptr %88, i32 0, i32 0
  %90 = load ptr, ptr %89, align 8, !tbaa !35
  %91 = getelementptr inbounds nuw %struct.CPpmd7_Context_, ptr %90, i32 0, i32 0
  store i16 256, ptr %91, align 4, !tbaa !38
  %92 = load ptr, ptr %2, align 8, !tbaa !3
  %93 = getelementptr inbounds nuw %struct.CPpmd7, ptr %92, i32 0, i32 0
  %94 = load ptr, ptr %93, align 8, !tbaa !35
  %95 = getelementptr inbounds nuw %struct.CPpmd7_Context_, ptr %94, i32 0, i32 1
  store i16 257, ptr %95, align 2, !tbaa !39
  %96 = load ptr, ptr %2, align 8, !tbaa !3
  %97 = getelementptr inbounds nuw %struct.CPpmd7, ptr %96, i32 0, i32 13
  %98 = load ptr, ptr %97, align 8, !tbaa !28
  %99 = load ptr, ptr %2, align 8, !tbaa !3
  %100 = getelementptr inbounds nuw %struct.CPpmd7, ptr %99, i32 0, i32 2
  store ptr %98, ptr %100, align 8, !tbaa !40
  %101 = load ptr, ptr %2, align 8, !tbaa !3
  %102 = getelementptr inbounds nuw %struct.CPpmd7, ptr %101, i32 0, i32 13
  %103 = load ptr, ptr %102, align 8, !tbaa !28
  %104 = getelementptr inbounds nuw i8, ptr %103, i64 1536
  store ptr %104, ptr %102, align 8, !tbaa !28
  %105 = load ptr, ptr %2, align 8, !tbaa !3
  %106 = getelementptr inbounds nuw %struct.CPpmd7, ptr %105, i32 0, i32 2
  %107 = load ptr, ptr %106, align 8, !tbaa !40
  %108 = load ptr, ptr %2, align 8, !tbaa !3
  %109 = getelementptr inbounds nuw %struct.CPpmd7, ptr %108, i32 0, i32 12
  %110 = load ptr, ptr %109, align 8, !tbaa !7
  %111 = ptrtoint ptr %107 to i64
  %112 = ptrtoint ptr %110 to i64
  %113 = sub i64 %111, %112
  %114 = trunc i64 %113 to i32
  %115 = load ptr, ptr %2, align 8, !tbaa !3
  %116 = getelementptr inbounds nuw %struct.CPpmd7, ptr %115, i32 0, i32 0
  %117 = load ptr, ptr %116, align 8, !tbaa !35
  %118 = getelementptr inbounds nuw %struct.CPpmd7_Context_, ptr %117, i32 0, i32 2
  store i32 %114, ptr %118, align 4, !tbaa !41
  store i32 0, ptr %3, align 4, !tbaa !14
  br label %119

119:                                              ; preds = %136, %66
  %120 = load i32, ptr %3, align 4, !tbaa !14
  %121 = icmp ult i32 %120, 256
  br i1 %121, label %122, label %139

122:                                              ; preds = %119
  call void @llvm.lifetime.start.p0(i64 8, ptr %6) #4
  %123 = load ptr, ptr %2, align 8, !tbaa !3
  %124 = getelementptr inbounds nuw %struct.CPpmd7, ptr %123, i32 0, i32 2
  %125 = load ptr, ptr %124, align 8, !tbaa !40
  %126 = load i32, ptr %3, align 4, !tbaa !14
  %127 = zext i32 %126 to i64
  %128 = getelementptr inbounds nuw %struct.CPpmd_State, ptr %125, i64 %127
  store ptr %128, ptr %6, align 8, !tbaa !3
  %129 = load i32, ptr %3, align 4, !tbaa !14
  %130 = trunc i32 %129 to i8
  %131 = load ptr, ptr %6, align 8, !tbaa !3
  %132 = getelementptr inbounds nuw %struct.CPpmd_State, ptr %131, i32 0, i32 0
  store i8 %130, ptr %132, align 2, !tbaa !42
  %133 = load ptr, ptr %6, align 8, !tbaa !3
  %134 = getelementptr inbounds nuw %struct.CPpmd_State, ptr %133, i32 0, i32 1
  store i8 1, ptr %134, align 1, !tbaa !44
  %135 = load ptr, ptr %6, align 8, !tbaa !3
  call void @SetSuccessor(ptr noundef %135, i32 noundef 0)
  call void @llvm.lifetime.end.p0(i64 8, ptr %6) #4
  br label %136

136:                                              ; preds = %122
  %137 = load i32, ptr %3, align 4, !tbaa !14
  %138 = add i32 %137, 1
  store i32 %138, ptr %3, align 4, !tbaa !14
  br label %119

139:                                              ; preds = %119
  store i32 0, ptr %3, align 4, !tbaa !14
  br label %140

140:                                              ; preds = %184, %139
  %141 = load i32, ptr %3, align 4, !tbaa !14
  %142 = icmp ult i32 %141, 128
  br i1 %142, label %143, label %187

143:                                              ; preds = %140
  store i32 0, ptr %4, align 4, !tbaa !14
  br label %144

144:                                              ; preds = %180, %143
  %145 = load i32, ptr %4, align 4, !tbaa !14
  %146 = icmp ult i32 %145, 8
  br i1 %146, label %147, label %183

147:                                              ; preds = %144
  call void @llvm.lifetime.start.p0(i64 8, ptr %7) #4
  %148 = load ptr, ptr %2, align 8, !tbaa !3
  %149 = getelementptr inbounds nuw %struct.CPpmd7, ptr %148, i32 0, i32 26
  %150 = load i32, ptr %3, align 4, !tbaa !14
  %151 = zext i32 %150 to i64
  %152 = getelementptr inbounds nuw [128 x [64 x i16]], ptr %149, i64 0, i64 %151
  %153 = getelementptr inbounds [64 x i16], ptr %152, i64 0, i64 0
  %154 = load i32, ptr %4, align 4, !tbaa !14
  %155 = zext i32 %154 to i64
  %156 = getelementptr inbounds nuw i16, ptr %153, i64 %155
  store ptr %156, ptr %7, align 8, !tbaa !45
  call void @llvm.lifetime.start.p0(i64 2, ptr %8) #4
  %157 = load i32, ptr %4, align 4, !tbaa !14
  %158 = zext i32 %157 to i64
  %159 = getelementptr inbounds nuw [8 x i16], ptr @kInitBinEsc, i64 0, i64 %158
  %160 = load i16, ptr %159, align 2, !tbaa !47
  %161 = zext i16 %160 to i32
  %162 = load i32, ptr %3, align 4, !tbaa !14
  %163 = add i32 %162, 2
  %164 = udiv i32 %161, %163
  %165 = sub i32 16384, %164
  %166 = trunc i32 %165 to i16
  store i16 %166, ptr %8, align 2, !tbaa !47
  store i32 0, ptr %5, align 4, !tbaa !14
  br label %167

167:                                              ; preds = %176, %147
  %168 = load i32, ptr %5, align 4, !tbaa !14
  %169 = icmp ult i32 %168, 64
  br i1 %169, label %170, label %179

170:                                              ; preds = %167
  %171 = load i16, ptr %8, align 2, !tbaa !47
  %172 = load ptr, ptr %7, align 8, !tbaa !45
  %173 = load i32, ptr %5, align 4, !tbaa !14
  %174 = zext i32 %173 to i64
  %175 = getelementptr inbounds nuw i16, ptr %172, i64 %174
  store i16 %171, ptr %175, align 2, !tbaa !47
  br label %176

176:                                              ; preds = %170
  %177 = load i32, ptr %5, align 4, !tbaa !14
  %178 = add i32 %177, 8
  store i32 %178, ptr %5, align 4, !tbaa !14
  br label %167

179:                                              ; preds = %167
  call void @llvm.lifetime.end.p0(i64 2, ptr %8) #4
  call void @llvm.lifetime.end.p0(i64 8, ptr %7) #4
  br label %180

180:                                              ; preds = %179
  %181 = load i32, ptr %4, align 4, !tbaa !14
  %182 = add i32 %181, 1
  store i32 %182, ptr %4, align 4, !tbaa !14
  br label %144

183:                                              ; preds = %144
  br label %184

184:                                              ; preds = %183
  %185 = load i32, ptr %3, align 4, !tbaa !14
  %186 = add i32 %185, 1
  store i32 %186, ptr %3, align 4, !tbaa !14
  br label %140

187:                                              ; preds = %140
  store i32 0, ptr %3, align 4, !tbaa !14
  br label %188

188:                                              ; preds = %219, %187
  %189 = load i32, ptr %3, align 4, !tbaa !14
  %190 = icmp ult i32 %189, 25
  br i1 %190, label %191, label %222

191:                                              ; preds = %188
  store i32 0, ptr %4, align 4, !tbaa !14
  br label %192

192:                                              ; preds = %215, %191
  %193 = load i32, ptr %4, align 4, !tbaa !14
  %194 = icmp ult i32 %193, 16
  br i1 %194, label %195, label %218

195:                                              ; preds = %192
  call void @llvm.lifetime.start.p0(i64 8, ptr %9) #4
  %196 = load ptr, ptr %2, align 8, !tbaa !3
  %197 = getelementptr inbounds nuw %struct.CPpmd7, ptr %196, i32 0, i32 25
  %198 = load i32, ptr %3, align 4, !tbaa !14
  %199 = zext i32 %198 to i64
  %200 = getelementptr inbounds nuw [25 x [16 x %struct.CPpmd_See]], ptr %197, i64 0, i64 %199
  %201 = load i32, ptr %4, align 4, !tbaa !14
  %202 = zext i32 %201 to i64
  %203 = getelementptr inbounds nuw [16 x %struct.CPpmd_See], ptr %200, i64 0, i64 %202
  store ptr %203, ptr %9, align 8, !tbaa !3
  %204 = load i32, ptr %3, align 4, !tbaa !14
  %205 = mul i32 5, %204
  %206 = add i32 %205, 10
  %207 = load ptr, ptr %9, align 8, !tbaa !3
  %208 = getelementptr inbounds nuw %struct.CPpmd_See, ptr %207, i32 0, i32 1
  store i8 3, ptr %208, align 2, !tbaa !48
  %209 = shl i32 %206, 3
  %210 = trunc i32 %209 to i16
  %211 = load ptr, ptr %9, align 8, !tbaa !3
  %212 = getelementptr inbounds nuw %struct.CPpmd_See, ptr %211, i32 0, i32 0
  store i16 %210, ptr %212, align 2, !tbaa !49
  %213 = load ptr, ptr %9, align 8, !tbaa !3
  %214 = getelementptr inbounds nuw %struct.CPpmd_See, ptr %213, i32 0, i32 2
  store i8 4, ptr %214, align 1, !tbaa !50
  call void @llvm.lifetime.end.p0(i64 8, ptr %9) #4
  br label %215

215:                                              ; preds = %195
  %216 = load i32, ptr %4, align 4, !tbaa !14
  %217 = add i32 %216, 1
  store i32 %217, ptr %4, align 4, !tbaa !14
  br label %192

218:                                              ; preds = %192
  br label %219

219:                                              ; preds = %218
  %220 = load i32, ptr %3, align 4, !tbaa !14
  %221 = add i32 %220, 1
  store i32 %221, ptr %3, align 4, !tbaa !14
  br label %188

222:                                              ; preds = %188
  call void @llvm.lifetime.end.p0(i64 4, ptr %5) #4
  call void @llvm.lifetime.end.p0(i64 4, ptr %4) #4
  call void @llvm.lifetime.end.p0(i64 4, ptr %3) #4
  ret void
}